
unit7_lesson_1.elf:     file format elf32-littlearm

Sections:
Idx Name          Size      VMA       LMA       File off  Algn
  0 .isr_vector   00000130  08000000  08000000  00010000  2**0
                  CONTENTS, ALLOC, LOAD, READONLY, DATA
  1 .text         000001f0  08000130  08000130  00010130  2**2
                  CONTENTS, ALLOC, LOAD, READONLY, CODE
  2 .rodata       00000000  08000320  08000328  00010328  2**0
                  CONTENTS, ALLOC, LOAD, DATA
  3 .ARM.extab    00000000  08000320  08000320  00010328  2**0
                  CONTENTS
  4 .ARM          00000000  08000320  08000320  00010328  2**0
                  CONTENTS
  5 .preinit_array 00000000  08000320  08000328  00010328  2**0
                  CONTENTS, ALLOC, LOAD, DATA
  6 .init_array   00000004  08000320  08000320  00010320  2**2
                  CONTENTS, ALLOC, LOAD, DATA
  7 .fini_array   00000004  08000324  08000324  00010324  2**2
                  CONTENTS, ALLOC, LOAD, DATA
  8 .data         00000000  20000000  20000000  00010328  2**0
                  CONTENTS, ALLOC, LOAD, DATA
  9 .bss          0000001c  20000000  08000328  00020000  2**2
                  ALLOC
 10 ._user_heap_stack 00000604  2000001c  08000328  0002001c  2**0
                  ALLOC
 11 .ARM.attributes 00000029  00000000  00000000  00010328  2**0
                  CONTENTS, READONLY
 12 .debug_info   0000093d  00000000  00000000  00010351  2**0
                  CONTENTS, READONLY, DEBUGGING
 13 .debug_abbrev 000001d6  00000000  00000000  00010c8e  2**0
                  CONTENTS, READONLY, DEBUGGING
 14 .debug_aranges 00000060  00000000  00000000  00010e68  2**3
                  CONTENTS, READONLY, DEBUGGING
 15 .debug_ranges 00000048  00000000  00000000  00010ec8  2**3
                  CONTENTS, READONLY, DEBUGGING
 16 .debug_macro  00001d38  00000000  00000000  00010f10  2**0
                  CONTENTS, READONLY, DEBUGGING
 17 .debug_line   0000066d  00000000  00000000  00012c48  2**0
                  CONTENTS, READONLY, DEBUGGING
 18 .debug_str    00008109  00000000  00000000  000132b5  2**0
                  CONTENTS, READONLY, DEBUGGING
 19 .comment      0000007b  00000000  00000000  0001b3be  2**0
                  CONTENTS, READONLY
 20 .debug_frame  000000c0  00000000  00000000  0001b43c  2**2
                  CONTENTS, READONLY, DEBUGGING

Disassembly of section .text:

08000130 <__do_global_dtors_aux>:
 8000130:	b510      	push	{r4, lr}
 8000132:	4c05      	ldr	r4, [pc, #20]	; (8000148 <__do_global_dtors_aux+0x18>)
 8000134:	7823      	ldrb	r3, [r4, #0]
 8000136:	b933      	cbnz	r3, 8000146 <__do_global_dtors_aux+0x16>
 8000138:	4b04      	ldr	r3, [pc, #16]	; (800014c <__do_global_dtors_aux+0x1c>)
 800013a:	b113      	cbz	r3, 8000142 <__do_global_dtors_aux+0x12>
 800013c:	4804      	ldr	r0, [pc, #16]	; (8000150 <__do_global_dtors_aux+0x20>)
 800013e:	f3af 8000 	nop.w
 8000142:	2301      	movs	r3, #1
 8000144:	7023      	strb	r3, [r4, #0]
 8000146:	bd10      	pop	{r4, pc}
 8000148:	20000000 	.word	0x20000000
 800014c:	00000000 	.word	0x00000000
 8000150:	08000308 	.word	0x08000308

08000154 <frame_dummy>:
 8000154:	b508      	push	{r3, lr}
 8000156:	4b03      	ldr	r3, [pc, #12]	; (8000164 <frame_dummy+0x10>)
 8000158:	b11b      	cbz	r3, 8000162 <frame_dummy+0xe>
 800015a:	4903      	ldr	r1, [pc, #12]	; (8000168 <frame_dummy+0x14>)
 800015c:	4803      	ldr	r0, [pc, #12]	; (800016c <frame_dummy+0x18>)
 800015e:	f3af 8000 	nop.w
 8000162:	bd08      	pop	{r3, pc}
 8000164:	00000000 	.word	0x00000000
 8000168:	20000004 	.word	0x20000004
 800016c:	08000308 	.word	0x08000308

08000170 <clock_init>:
#define GPIOB_IDR      *(volatile uint32_t *)(GPIOB_BASE +  0x08h)
//#define GPIOA13         (1UL<<13)



void clock_init(){
 8000170:	b480      	push	{r7}
 8000172:	af00      	add	r7, sp, #0
	//enable clock GPIOA
	RCC_APB2ENR |= RCC_IOPAEN;
 8000174:	4b07      	ldr	r3, [pc, #28]	; (8000194 <clock_init+0x24>)
 8000176:	681b      	ldr	r3, [r3, #0]
 8000178:	4a06      	ldr	r2, [pc, #24]	; (8000194 <clock_init+0x24>)
 800017a:	f043 0304 	orr.w	r3, r3, #4
 800017e:	6013      	str	r3, [r2, #0]
	//enable clock GPIOA
	RCC_APB2ENR |=RCC_IOPBEN;
 8000180:	4b04      	ldr	r3, [pc, #16]	; (8000194 <clock_init+0x24>)
 8000182:	681b      	ldr	r3, [r3, #0]
 8000184:	4a03      	ldr	r2, [pc, #12]	; (8000194 <clock_init+0x24>)
 8000186:	f043 0308 	orr.w	r3, r3, #8
 800018a:	6013      	str	r3, [r2, #0]
}
 800018c:	bf00      	nop
 800018e:	46bd      	mov	sp, r7
 8000190:	bc80      	pop	{r7}
 8000192:	4770      	bx	lr
 8000194:	40021018 	.word	0x40021018

08000198 <GPIO_INIT>:
	for(i=0;i <=x ;i++)
		for(j=0;j<=1000;j++);


}
void GPIO_INIT(){
 8000198:	b480      	push	{r7}
 800019a:	af00      	add	r7, sp, #0


	//CLEAR IDR for PORTA
		GPIOA_IDR=0;
 800019c:	4b18      	ldr	r3, [pc, #96]	; (8000200 <GPIO_INIT+0x68>)
 800019e:	2200      	movs	r2, #0
 80001a0:	601a      	str	r2, [r3, #0]
        GPIOA_CRH=0;
 80001a2:	4b18      	ldr	r3, [pc, #96]	; (8000204 <GPIO_INIT+0x6c>)
 80001a4:	2200      	movs	r2, #0
 80001a6:	601a      	str	r2, [r3, #0]
       GPIOA_CRL=0;
 80001a8:	4b17      	ldr	r3, [pc, #92]	; (8000208 <GPIO_INIT+0x70>)
 80001aa:	2200      	movs	r2, #0
 80001ac:	601a      	str	r2, [r3, #0]
		//In input mode (MODE[1:0]=00):
	//00: Analog mode
	//01: Floating input (reset state)
	//10: Input with pull-up / pull-down
	//11: Reserved
	GPIOA_CRL &= ~(0b11<<4); //as  input  PA1
 80001ae:	4b16      	ldr	r3, [pc, #88]	; (8000208 <GPIO_INIT+0x70>)
 80001b0:	681b      	ldr	r3, [r3, #0]
 80001b2:	4a15      	ldr	r2, [pc, #84]	; (8000208 <GPIO_INIT+0x70>)
 80001b4:	f023 0330 	bic.w	r3, r3, #48	; 0x30
 80001b8:	6013      	str	r3, [r2, #0]
	GPIOA_CRL |= 0b01<<6; //as floating PA1
 80001ba:	4b13      	ldr	r3, [pc, #76]	; (8000208 <GPIO_INIT+0x70>)
 80001bc:	681b      	ldr	r3, [r3, #0]
 80001be:	4a12      	ldr	r2, [pc, #72]	; (8000208 <GPIO_INIT+0x70>)
 80001c0:	f043 0340 	orr.w	r3, r3, #64	; 0x40
 80001c4:	6013      	str	r3, [r2, #0]


	GPIOA_CRH &= ~(0b11<<20); //as  input  PA1
 80001c6:	4b0f      	ldr	r3, [pc, #60]	; (8000204 <GPIO_INIT+0x6c>)
 80001c8:	681b      	ldr	r3, [r3, #0]
 80001ca:	4a0e      	ldr	r2, [pc, #56]	; (8000204 <GPIO_INIT+0x6c>)
 80001cc:	f423 1340 	bic.w	r3, r3, #3145728	; 0x300000
 80001d0:	6013      	str	r3, [r2, #0]
	GPIOA_CRH |= 0b01 <<22;  // as floating
 80001d2:	4b0c      	ldr	r3, [pc, #48]	; (8000204 <GPIO_INIT+0x6c>)
 80001d4:	681b      	ldr	r3, [r3, #0]
 80001d6:	4a0b      	ldr	r2, [pc, #44]	; (8000204 <GPIO_INIT+0x6c>)
 80001d8:	f443 0380 	orr.w	r3, r3, #4194304	; 0x400000
 80001dc:	6013      	str	r3, [r2, #0]

	//////////////////PORTB CONFIG //////

		GPIOB_CRL |= 0b0111<<4; //as output open drain PB1
 80001de:	4b0b      	ldr	r3, [pc, #44]	; (800020c <GPIO_INIT+0x74>)
 80001e0:	681b      	ldr	r3, [r3, #0]
 80001e2:	4a0a      	ldr	r2, [pc, #40]	; (800020c <GPIO_INIT+0x74>)
 80001e4:	f043 0370 	orr.w	r3, r3, #112	; 0x70
 80001e8:	6013      	str	r3, [r2, #0]


		//GPIOB_CRH &= ~(0b11<<20); //as  input  PA1
		GPIOB_CRH |= 0b0111<<20;  // as output open drain PB13
 80001ea:	4b09      	ldr	r3, [pc, #36]	; (8000210 <GPIO_INIT+0x78>)
 80001ec:	681b      	ldr	r3, [r3, #0]
 80001ee:	4a08      	ldr	r2, [pc, #32]	; (8000210 <GPIO_INIT+0x78>)
 80001f0:	f443 03e0 	orr.w	r3, r3, #7340032	; 0x700000
 80001f4:	6013      	str	r3, [r2, #0]
}
 80001f6:	bf00      	nop
 80001f8:	46bd      	mov	sp, r7
 80001fa:	bc80      	pop	{r7}
 80001fc:	4770      	bx	lr
 80001fe:	bf00      	nop
 8000200:	40010808 	.word	0x40010808
 8000204:	40010804 	.word	0x40010804
 8000208:	40010800 	.word	0x40010800
 800020c:	40010c00 	.word	0x40010c00
 8000210:	40010c04 	.word	0x40010c04

08000214 <main>:

int main (void)
{
 8000214:	b580      	push	{r7, lr}
 8000216:	af00      	add	r7, sp, #0


	 clock_init();
 8000218:	f7ff ffaa 	bl	8000170 <clock_init>
	 GPIO_INIT();
 800021c:	f7ff ffbc 	bl	8000198 <GPIO_INIT>
while(1){
/////
	if(((GPIOA_IDR & (1<<1)) >>1) == 0){
 8000220:	4b10      	ldr	r3, [pc, #64]	; (8000264 <main+0x50>)
 8000222:	681b      	ldr	r3, [r3, #0]
 8000224:	f003 0302 	and.w	r3, r3, #2
 8000228:	2b00      	cmp	r3, #0
 800022a:	d10c      	bne.n	8000246 <main+0x32>
         GPIOB_ODR  ^= 1<<1;
 800022c:	4b0e      	ldr	r3, [pc, #56]	; (8000268 <main+0x54>)
 800022e:	681b      	ldr	r3, [r3, #0]
 8000230:	4a0d      	ldr	r2, [pc, #52]	; (8000268 <main+0x54>)
 8000232:	f083 0302 	eor.w	r3, r3, #2
 8000236:	6013      	str	r3, [r2, #0]
	 while(((GPIOA_IDR & (1<<1)) >>1) == 0);
 8000238:	bf00      	nop
 800023a:	4b0a      	ldr	r3, [pc, #40]	; (8000264 <main+0x50>)
 800023c:	681b      	ldr	r3, [r3, #0]
 800023e:	f003 0302 	and.w	r3, r3, #2
 8000242:	2b00      	cmp	r3, #0
 8000244:	d0f9      	beq.n	800023a <main+0x26>
	}

	 if(((GPIOA_IDR & (1<<13)) >>13) == 1)
 8000246:	4b07      	ldr	r3, [pc, #28]	; (8000264 <main+0x50>)
 8000248:	681b      	ldr	r3, [r3, #0]
 800024a:	0b5b      	lsrs	r3, r3, #13
 800024c:	f003 0301 	and.w	r3, r3, #1
 8000250:	2b01      	cmp	r3, #1
 8000252:	d1e5      	bne.n	8000220 <main+0xc>
	 {
	          GPIOB_ODR  ^= 1<<13;
 8000254:	4b04      	ldr	r3, [pc, #16]	; (8000268 <main+0x54>)
 8000256:	681b      	ldr	r3, [r3, #0]
 8000258:	4a03      	ldr	r2, [pc, #12]	; (8000268 <main+0x54>)
 800025a:	f483 5300 	eor.w	r3, r3, #8192	; 0x2000
 800025e:	6013      	str	r3, [r2, #0]
	if(((GPIOA_IDR & (1<<1)) >>1) == 0){
 8000260:	e7de      	b.n	8000220 <main+0xc>
 8000262:	bf00      	nop
 8000264:	40010808 	.word	0x40010808
 8000268:	40010c0c 	.word	0x40010c0c

0800026c <Reset_Handler>:

  .section .text.Reset_Handler
  .weak Reset_Handler
  .type Reset_Handler, %function
Reset_Handler:
  ldr   r0, =_estack
 800026c:	480d      	ldr	r0, [pc, #52]	; (80002a4 <LoopForever+0x2>)
  mov   sp, r0          /* set stack pointer */
 800026e:	4685      	mov	sp, r0
/* Call the clock system intitialization function.*/
  bl  SystemInit
 8000270:	f3af 8000 	nop.w

/* Copy the data segment initializers from flash to SRAM */
  ldr r0, =_sdata
 8000274:	480c      	ldr	r0, [pc, #48]	; (80002a8 <LoopForever+0x6>)
  ldr r1, =_edata
 8000276:	490d      	ldr	r1, [pc, #52]	; (80002ac <LoopForever+0xa>)
  ldr r2, =_sidata
 8000278:	4a0d      	ldr	r2, [pc, #52]	; (80002b0 <LoopForever+0xe>)
  movs r3, #0
 800027a:	2300      	movs	r3, #0
  b LoopCopyDataInit
 800027c:	e002      	b.n	8000284 <LoopCopyDataInit>

0800027e <CopyDataInit>:

CopyDataInit:
  ldr r4, [r2, r3]
 800027e:	58d4      	ldr	r4, [r2, r3]
  str r4, [r0, r3]
 8000280:	50c4      	str	r4, [r0, r3]
  adds r3, r3, #4
 8000282:	3304      	adds	r3, #4

08000284 <LoopCopyDataInit>:

LoopCopyDataInit:
  adds r4, r0, r3
 8000284:	18c4      	adds	r4, r0, r3
  cmp r4, r1
 8000286:	428c      	cmp	r4, r1
  bcc CopyDataInit
 8000288:	d3f9      	bcc.n	800027e <CopyDataInit>

/* Zero fill the bss segment. */
  ldr r2, =_sbss
 800028a:	4a0a      	ldr	r2, [pc, #40]	; (80002b4 <LoopForever+0x12>)
  ldr r4, =_ebss
 800028c:	4c0a      	ldr	r4, [pc, #40]	; (80002b8 <LoopForever+0x16>)
  movs r3, #0
 800028e:	2300      	movs	r3, #0
  b LoopFillZerobss
 8000290:	e001      	b.n	8000296 <LoopFillZerobss>

08000292 <FillZerobss>:

FillZerobss:
  str  r3, [r2]
 8000292:	6013      	str	r3, [r2, #0]
  adds r2, r2, #4
 8000294:	3204      	adds	r2, #4

08000296 <LoopFillZerobss>:

LoopFillZerobss:
  cmp r2, r4
 8000296:	42a2      	cmp	r2, r4
  bcc FillZerobss
 8000298:	d3fb      	bcc.n	8000292 <FillZerobss>

/* Call static constructors */
  bl __libc_init_array
 800029a:	f000 f811 	bl	80002c0 <__libc_init_array>
/* Call the application's entry point.*/
  bl main
 800029e:	f7ff ffb9 	bl	8000214 <main>

080002a2 <LoopForever>:

LoopForever:
    b LoopForever
 80002a2:	e7fe      	b.n	80002a2 <LoopForever>
  ldr   r0, =_estack
 80002a4:	20002800 	.word	0x20002800
  ldr r0, =_sdata
 80002a8:	20000000 	.word	0x20000000
  ldr r1, =_edata
 80002ac:	20000000 	.word	0x20000000
  ldr r2, =_sidata
 80002b0:	08000328 	.word	0x08000328
  ldr r2, =_sbss
 80002b4:	20000000 	.word	0x20000000
  ldr r4, =_ebss
 80002b8:	2000001c 	.word	0x2000001c

080002bc <ADC1_2_IRQHandler>:
 * @retval : None
*/
  .section .text.Default_Handler,"ax",%progbits
Default_Handler:
Infinite_Loop:
  b Infinite_Loop
 80002bc:	e7fe      	b.n	80002bc <ADC1_2_IRQHandler>
	...

080002c0 <__libc_init_array>:
 80002c0:	b570      	push	{r4, r5, r6, lr}
 80002c2:	2500      	movs	r5, #0
 80002c4:	4e0c      	ldr	r6, [pc, #48]	; (80002f8 <__libc_init_array+0x38>)
 80002c6:	4c0d      	ldr	r4, [pc, #52]	; (80002fc <__libc_init_array+0x3c>)
 80002c8:	1ba4      	subs	r4, r4, r6
 80002ca:	10a4      	asrs	r4, r4, #2
 80002cc:	42a5      	cmp	r5, r4
 80002ce:	d109      	bne.n	80002e4 <__libc_init_array+0x24>
 80002d0:	f000 f81a 	bl	8000308 <_init>
 80002d4:	2500      	movs	r5, #0
 80002d6:	4e0a      	ldr	r6, [pc, #40]	; (8000300 <__libc_init_array+0x40>)
 80002d8:	4c0a      	ldr	r4, [pc, #40]	; (8000304 <__libc_init_array+0x44>)
 80002da:	1ba4      	subs	r4, r4, r6
 80002dc:	10a4      	asrs	r4, r4, #2
 80002de:	42a5      	cmp	r5, r4
 80002e0:	d105      	bne.n	80002ee <__libc_init_array+0x2e>
 80002e2:	bd70      	pop	{r4, r5, r6, pc}
 80002e4:	f856 3025 	ldr.w	r3, [r6, r5, lsl #2]
 80002e8:	4798      	blx	r3
 80002ea:	3501      	adds	r5, #1
 80002ec:	e7ee      	b.n	80002cc <__libc_init_array+0xc>
 80002ee:	f856 3025 	ldr.w	r3, [r6, r5, lsl #2]
 80002f2:	4798      	blx	r3
 80002f4:	3501      	adds	r5, #1
 80002f6:	e7f2      	b.n	80002de <__libc_init_array+0x1e>
 80002f8:	08000320 	.word	0x08000320
 80002fc:	08000320 	.word	0x08000320
 8000300:	08000320 	.word	0x08000320
 8000304:	08000324 	.word	0x08000324

08000308 <_init>:
 8000308:	b5f8      	push	{r3, r4, r5, r6, r7, lr}
 800030a:	bf00      	nop
 800030c:	bcf8      	pop	{r3, r4, r5, r6, r7}
 800030e:	bc08      	pop	{r3}
 8000310:	469e      	mov	lr, r3
 8000312:	4770      	bx	lr

08000314 <_fini>:
 8000314:	b5f8      	push	{r3, r4, r5, r6, r7, lr}
 8000316:	bf00      	nop
 8000318:	bcf8      	pop	{r3, r4, r5, r6, r7}
 800031a:	bc08      	pop	{r3}
 800031c:	469e      	mov	lr, r3
 800031e:	4770      	bx	lr
